; Function Attrs: mustprogress nofree norecurse nosync nounwind willreturn memory(argmem: read) uwtable
define dso_local noundef zeroext i1 @_ZNK5cmsys11SystemTools10UnixFileIdneERKS1_(ptr noundef nonnull readonly align 8 captures(none) dereferenceable(24) %0, ptr noundef nonnull readonly align 8 captures(none) dereferenceable(24) %1) local_unnamed_addr #16 align 2 {
  %3 = load i64, ptr %0, align 8, !tbaa !44
  %4 = load i64, ptr %1, align 8, !tbaa !44
  %5 = icmp eq i64 %3, %4
  br i1 %5, label %6, label %_ZNK5cmsys11SystemTools10UnixFileIdeqERKS1_.exit

6:                                                ; preds = %2
  %7 = getelementptr inbounds nuw i8, ptr %0, i64 8
  %8 = load i64, ptr %7, align 8, !tbaa !46
  %9 = getelementptr inbounds nuw i8, ptr %1, i64 8
  %10 = load i64, ptr %9, align 8, !tbaa !46
  %11 = icmp eq i64 %8, %10
  br i1 %11, label %12, label %_ZNK5cmsys11SystemTools10UnixFileIdeqERKS1_.exit

12:                                               ; preds = %6
  %13 = getelementptr inbounds nuw i8, ptr %0, i64 16
  %14 = load i64, ptr %13, align 8, !tbaa !47
  %15 = getelementptr inbounds nuw i8, ptr %1, i64 16
  %16 = load i64, ptr %15, align 8, !tbaa !47
  %17 = icmp ne i64 %14, %16
  br label %_ZNK5cmsys11SystemTools10UnixFileIdeqERKS1_.exit

_ZNK5cmsys11SystemTools10UnixFileIdeqERKS1_.exit: ; preds = %2, %6, %12
  %18 = phi i1 [ true, %6 ], [ true, %2 ], [ %17, %12 ]
  ret i1 %18
}